; Function Attrs: nounwind uwtable
define internal range(i32 0, 2) i32 @test_multi_default() #1 {
  %.b = load i1, ptr @multidefault_run, align 4
  br i1 %.b, label %1, label %3

1:                                                ; preds = %0
  %2 = tail call i32 (ptr, i32, ptr, ...) @test_skip(ptr noundef nonnull @.str.18, i32 noundef 1105, ptr noundef nonnull @.str.43) #11
  br label %5

3:                                                ; preds = %0
  store i1 true, ptr @multidefault_run, align 4
  %4 = tail call fastcc i32 @thread_run_test(ptr noundef nonnull @thread_multi_simple_fetch, i64 noundef 2, ptr noundef nonnull @thread_multi_simple_fetch, i32 noundef 0, ptr noundef nonnull @default_provider)
  br label %5

5:                                                ; preds = %3, %1
  %.0 = phi i32 [ 1, %1 ], [ %4, %3 ]
  ret i32 %.0
}